; Function Attrs: mustprogress uwtable
define ptr @cvCreateChildMemStorage(ptr noundef %0) local_unnamed_addr #0 personality ptr @__gxx_personality_v0 {
  %2 = alloca %"class.std::__cxx11::basic_string", align 8
  %3 = alloca %"class.std::allocator", align 1
  %4 = alloca %"class.std::__cxx11::basic_string", align 8
  %5 = alloca %"class.std::allocator", align 1
  %.not = icmp eq ptr %0, null
  br i1 %.not, label %6, label %19

6:                                                ; preds = %1
  call void @llvm.lifetime.start.p0(i64 32, ptr nonnull %4) #11
  call void @llvm.lifetime.start.p0(i64 1, ptr nonnull %5) #11
  invoke void @_ZNSt7__cxx1112basic_stringIcSt11char_traitsIcESaIcEEC2EPKcRKS3_(ptr noundef nonnull align 8 dereferenceable(32) %4, ptr noundef nonnull @.str, ptr noundef nonnull align 1 dereferenceable(1) %5)
          to label %7 unwind label %9

7:                                                ; preds = %6
  invoke void @_ZN2cv5errorEiRKNSt7__cxx1112basic_stringIcSt11char_traitsIcESaIcEEEPKcS9_i(i32 noundef -27, ptr noundef nonnull align 8 dereferenceable(32) %4, ptr noundef nonnull @__func__.cvCreateChildMemStorage, ptr noundef nonnull @.str.1, i32 noundef 123) #12
          to label %8 unwind label %11

8:                                                ; preds = %7
  unreachable

9:                                                ; preds = %6
  %10 = landingpad { ptr, i32 }
          cleanup
  br label %_ZNSt7__cxx1112basic_stringIcSt11char_traitsIcESaIcEED2Ev.exit

11:                                               ; preds = %7
  %12 = landingpad { ptr, i32 }
          cleanup
  %13 = load ptr, ptr %4, align 8, !tbaa !3
  %14 = getelementptr inbounds nuw i8, ptr %4, i64 16
  %15 = icmp eq ptr %13, %14
  br i1 %15, label %_ZNKSt7__cxx1112basic_stringIcSt11char_traitsIcESaIcEE11_M_is_localEv.exit.thread.i.i, label %_ZNKSt7__cxx1112basic_stringIcSt11char_traitsIcESaIcEE11_M_is_localEv.exit.i.i

_ZNKSt7__cxx1112basic_stringIcSt11char_traitsIcESaIcEE11_M_is_localEv.exit.thread.i.i: ; preds = %11
  %16 = getelementptr inbounds nuw i8, ptr %4, i64 8
  %17 = load i64, ptr %16, align 8, !tbaa !11
  %18 = icmp ult i64 %17, 16
  call void @llvm.assume(i1 %18)
  br label %_ZNSt7__cxx1112basic_stringIcSt11char_traitsIcESaIcEED2Ev.exit

_ZNKSt7__cxx1112basic_stringIcSt11char_traitsIcESaIcEE11_M_is_localEv.exit.i.i: ; preds = %11
  call void @_ZdlPv(ptr noundef %13) #13
  br label %_ZNSt7__cxx1112basic_stringIcSt11char_traitsIcESaIcEED2Ev.exit

common.resume:                                    ; preds = %_ZNSt7__cxx1112basic_stringIcSt11char_traitsIcESaIcEED2Ev.exit.i.i, %_ZNSt7__cxx1112basic_stringIcSt11char_traitsIcESaIcEED2Ev.exit
  %common.resume.op = phi { ptr, i32 } [ %.pn, %_ZNSt7__cxx1112basic_stringIcSt11char_traitsIcESaIcEED2Ev.exit ], [ %26, %_ZNSt7__cxx1112basic_stringIcSt11char_traitsIcESaIcEED2Ev.exit.i.i ]
  resume { ptr, i32 } %common.resume.op

_ZNSt7__cxx1112basic_stringIcSt11char_traitsIcESaIcEED2Ev.exit: ; preds = %_ZNKSt7__cxx1112basic_stringIcSt11char_traitsIcESaIcEE11_M_is_localEv.exit.i.i, %_ZNKSt7__cxx1112basic_stringIcSt11char_traitsIcESaIcEE11_M_is_localEv.exit.thread.i.i, %9
  %.pn = phi { ptr, i32 } [ %10, %9 ], [ %12, %_ZNKSt7__cxx1112basic_stringIcSt11char_traitsIcESaIcEE11_M_is_localEv.exit.thread.i.i ], [ %12, %_ZNKSt7__cxx1112basic_stringIcSt11char_traitsIcESaIcEE11_M_is_localEv.exit.i.i ]
  call void @llvm.lifetime.end.p0(i64 1, ptr nonnull %5) #11
  call void @llvm.lifetime.end.p0(i64 32, ptr nonnull %4) #11
  br label %common.resume

19:                                               ; preds = %1
  %20 = getelementptr inbounds nuw i8, ptr %0, i64 32
  %21 = load i32, ptr %20, align 8, !tbaa !17
  %22 = tail call ptr @cvAlloc(i64 noundef 40)
  %.not.i.i = icmp eq ptr %22, null
  br i1 %.not.i.i, label %23, label %cvCreateMemStorage.exit

23:                                               ; preds = %19
  call void @llvm.lifetime.start.p0(i64 32, ptr nonnull %2) #11
  call void @llvm.lifetime.start.p0(i64 1, ptr nonnull %3) #11
  call void @_ZNSt7__cxx1112basic_stringIcSt11char_traitsIcESaIcEEC2EPKcRKS3_(ptr noundef nonnull align 8 dereferenceable(32) %2, ptr noundef nonnull @.str, ptr noundef nonnull align 1 dereferenceable(1) %3)
  invoke void @_ZN2cv5errorEiRKNSt7__cxx1112basic_stringIcSt11char_traitsIcESaIcEEEPKcS9_i(i32 noundef -27, ptr noundef nonnull align 8 dereferenceable(32) %2, ptr noundef nonnull @__func__._ZL17icvInitMemStorageP12CvMemStoragei, ptr noundef nonnull @.str.1, i32 noundef 94) #12
          to label %24 unwind label %25

24:                                               ; preds = %23
  unreachable

25:                                               ; preds = %23
  %26 = landingpad { ptr, i32 }
          cleanup
  %27 = load ptr, ptr %2, align 8, !tbaa !3
  %28 = getelementptr inbounds nuw i8, ptr %2, i64 16
  %29 = icmp eq ptr %27, %28
  br i1 %29, label %_ZNKSt7__cxx1112basic_stringIcSt11char_traitsIcESaIcEE11_M_is_localEv.exit.thread.i.i.i.i, label %_ZNKSt7__cxx1112basic_stringIcSt11char_traitsIcESaIcEE11_M_is_localEv.exit.i.i.i.i

_ZNKSt7__cxx1112basic_stringIcSt11char_traitsIcESaIcEE11_M_is_localEv.exit.thread.i.i.i.i: ; preds = %25
  %30 = getelementptr inbounds nuw i8, ptr %2, i64 8
  %31 = load i64, ptr %30, align 8, !tbaa !11
  %32 = icmp ult i64 %31, 16
  call void @llvm.assume(i1 %32)
  br label %_ZNSt7__cxx1112basic_stringIcSt11char_traitsIcESaIcEED2Ev.exit.i.i

_ZNKSt7__cxx1112basic_stringIcSt11char_traitsIcESaIcEE11_M_is_localEv.exit.i.i.i.i: ; preds = %25
  call void @_ZdlPv(ptr noundef %27) #13
  br label %_ZNSt7__cxx1112basic_stringIcSt11char_traitsIcESaIcEED2Ev.exit.i.i

_ZNSt7__cxx1112basic_stringIcSt11char_traitsIcESaIcEED2Ev.exit.i.i: ; preds = %_ZNKSt7__cxx1112basic_stringIcSt11char_traitsIcESaIcEE11_M_is_localEv.exit.i.i.i.i, %_ZNKSt7__cxx1112basic_stringIcSt11char_traitsIcESaIcEE11_M_is_localEv.exit.thread.i.i.i.i
  call void @llvm.lifetime.end.p0(i64 1, ptr nonnull %3) #11
  call void @llvm.lifetime.end.p0(i64 32, ptr nonnull %2) #11
  br label %common.resume

cvCreateMemStorage.exit:                          ; preds = %19
  %33 = icmp slt i32 %21, 1
  %34 = add nuw nsw i32 %21, 7
  %35 = and i32 %34, -8
  %36 = select i1 %33, i32 65408, i32 %35
  tail call void @llvm.memset.p0.i64(ptr noundef nonnull align 8 dereferenceable(40) %22, i8 0, i64 40, i1 false)
  store i32 1116274688, ptr %22, align 8, !tbaa !12
  %37 = getelementptr inbounds nuw i8, ptr %22, i64 32
  store i32 %36, ptr %37, align 8, !tbaa !17
  %38 = getelementptr inbounds nuw i8, ptr %22, i64 24
  store ptr %0, ptr %38, align 8, !tbaa !18
  ret ptr %22
}